target datalayout = "e-m:e-p270:32:32-p271:32:32-p272:64:64-i64:64-i128:128-f80:128-n8:16:32:64-S128"
target triple = "x86_64-pc-linux-gnu"

%"class.absl::lts_20240722::log_internal::Voidify" = type { i8 }
%"class.absl::lts_20240722::log_internal::LogMessage" = type { %"class.absl::lts_20240722::base_internal::ErrnoSaver", %"class.std::unique_ptr" }
%"class.absl::lts_20240722::base_internal::ErrnoSaver" = type { i32 }
%"class.std::unique_ptr" = type { %"struct.std::__uniq_ptr_data" }
%"struct.std::__uniq_ptr_data" = type { %"class.std::__uniq_ptr_impl" }
%"class.std::__uniq_ptr_impl" = type { %"class.std::tuple" }
%"class.std::tuple" = type { %"struct.std::_Tuple_impl" }
%"struct.std::_Tuple_impl" = type { %"struct.std::_Head_base.1" }
%"struct.std::_Head_base.1" = type { ptr }
%struct.grpc_slice = type { ptr, %"union.grpc_slice::grpc_slice_data" }
%"union.grpc_slice::grpc_slice_data" = type { %"struct.grpc_slice::grpc_slice_data::grpc_slice_refcounted", [8 x i8] }
%"struct.grpc_slice::grpc_slice_data::grpc_slice_refcounted" = type { i64, ptr }
%"class.std::basic_string_view" = type { i64, ptr }
%"class.absl::lts_20240722::log_internal::LogMessageFatal" = type { %"class.absl::lts_20240722::log_internal::LogMessage" }
%struct.alts_tsi_handshaker = type { %struct.tsi_handshaker, %struct.grpc_slice, i8, i8, i8, ptr, ptr, ptr, ptr, ptr, i8, %"class.absl::lts_20240722::Mutex", ptr, i8, i64 }
%struct.tsi_handshaker = type { ptr, i8, i8, i8 }
%"class.absl::lts_20240722::Mutex" = type { %"struct.std::atomic" }
%"struct.std::atomic" = type { %"struct.std::__atomic_base" }
%"struct.std::__atomic_base" = type { i64 }
%"class.std::__cxx11::basic_string" = type { %"struct.std::__cxx11::basic_string<char>::_Alloc_hider", i64, %union.anon }
%"struct.std::__cxx11::basic_string<char>::_Alloc_hider" = type { ptr }
%union.anon = type { i64, [8 x i8] }
%struct.alts_tsi_handshaker_continue_handshaker_next_args = type { ptr, ptr, i64, ptr, ptr, %struct.grpc_closure, ptr }
%struct.grpc_closure = type { %union.anon.36, ptr, ptr, %union.anon.37 }
%union.anon.36 = type { ptr }
%union.anon.37 = type { i64 }
%struct.grpc_arg = type { i32, ptr, %"union.(anonymous struct)::grpc_arg_value" }
%"union.(anonymous struct)::grpc_arg_value" = type { %"struct.(anonymous struct)::grpc_arg_value::grpc_arg_pointer" }
%"struct.(anonymous struct)::grpc_arg_value::grpc_arg_pointer" = type { ptr, ptr }
%struct.grpc_channel_args = type { i64, ptr }

@.str = private unnamed_addr constant [139 x i8] c"generated/home/dtcxzyw/WorkSpace/Projects/compilers/llvm-opt-benchmark/bench/grpc/grpc/src/core/tsi/alts/handshaker/alts_tsi_handshaker.cc\00", align 1
@.str.42 = private unnamed_addr constant [31 x i8] c"handshaker->channel == nullptr\00", align 1
@.str.43 = private unnamed_addr constant [20 x i8] c"grpc.enable_retries\00", align 1

; Function Attrs: mustprogress nounwind uwtable
define available_externally noundef ptr @_ZNKSt7__cxx1112basic_stringIcSt11char_traitsIcESaIcEE7_M_dataEv(ptr noundef nonnull align 8 dereferenceable(32) %0) #6 align 2 {
  %2 = alloca ptr, align 8
  store ptr %0, ptr %2, align 8, !tbaa !71
  %3 = load ptr, ptr %2, align 8
  %4 = getelementptr inbounds nuw %"class.std::__cxx11::basic_string", ptr %3, i32 0, i32 0
  %5 = getelementptr inbounds nuw %"struct.std::__cxx11::basic_string<char>::_Alloc_hider", ptr %4, i32 0, i32 0
  %6 = load ptr, ptr %5, align 8, !tbaa !226
  ret ptr %6
}

; Function Attrs: mustprogress nounwind uwtable
define linkonce_odr void @_ZNSt17basic_string_viewIcSt11char_traitsIcEEC2EPKcm(ptr noundef nonnull align 8 dereferenceable(16) %0, ptr noundef %1, i64 noundef %2) unnamed_addr #6 comdat align 2 {
  %4 = alloca ptr, align 8
  %5 = alloca ptr, align 8
  %6 = alloca i64, align 8
  store ptr %0, ptr %4, align 8, !tbaa !118
  store ptr %1, ptr %5, align 8, !tbaa !39
  store i64 %2, ptr %6, align 8, !tbaa !40
  %7 = load ptr, ptr %4, align 8
  %8 = getelementptr inbounds nuw %"class.std::basic_string_view", ptr %7, i32 0, i32 0
  %9 = load i64, ptr %6, align 8, !tbaa !40
  store i64 %9, ptr %8, align 8, !tbaa !120
  %10 = getelementptr inbounds nuw %"class.std::basic_string_view", ptr %7, i32 0, i32 1
  %11 = load ptr, ptr %5, align 8, !tbaa !39
  store ptr %11, ptr %10, align 8, !tbaa !122
  ret void
}

; Function Attrs: mustprogress nounwind uwtable
define available_externally noundef i64 @_ZNKSt7__cxx1112basic_stringIcSt11char_traitsIcESaIcEE4sizeEv(ptr noundef nonnull align 8 dereferenceable(32) %0) #6 align 2 {
  %2 = alloca ptr, align 8
  store ptr %0, ptr %2, align 8, !tbaa !71
  %3 = load ptr, ptr %2, align 8
  %4 = getelementptr inbounds nuw %"class.std::__cxx11::basic_string", ptr %3, i32 0, i32 1
  %5 = load i64, ptr %4, align 8, !tbaa !223
  ret i64 %5
}

; Function Attrs: mustprogress nounwind uwtable
define available_externally noundef ptr @_ZNKSt7__cxx1112basic_stringIcSt11char_traitsIcESaIcEE4dataEv(ptr noundef nonnull align 8 dereferenceable(32) %0) #6 align 2 {
  %2 = alloca ptr, align 8
  store ptr %0, ptr %2, align 8, !tbaa !71
  %3 = load ptr, ptr %2, align 8
  %4 = call noundef ptr @_ZNKSt7__cxx1112basic_stringIcSt11char_traitsIcESaIcEE7_M_dataEv(ptr noundef nonnull align 8 dereferenceable(32) %3)
  ret ptr %4
}

; Function Attrs: mustprogress nounwind uwtable
define linkonce_odr void @_ZNKO4absl12lts_2024072212log_internal7VoidifyaaINS1_10LogMessageEEEvRKT_(ptr noundef nonnull align 1 dereferenceable(1) %0, ptr noundef nonnull align 8 dereferenceable(16) %1) #6 comdat align 2 {
  %3 = alloca ptr, align 8
  %4 = alloca ptr, align 8
  store ptr %0, ptr %3, align 8, !tbaa !52
  store ptr %1, ptr %4, align 8, !tbaa !54
  ret void
}

; Function Attrs: mustprogress nounwind uwtable
define linkonce_odr noundef nonnull align 8 dereferenceable(16) ptr @_ZN4absl12lts_2024072212log_internal10LogMessage14InternalStreamEv(ptr noundef nonnull align 8 dereferenceable(16) %0) #6 comdat align 2 {
  %2 = alloca ptr, align 8
  store ptr %0, ptr %2, align 8, !tbaa !54
  %3 = load ptr, ptr %2, align 8
  ret ptr %3
}

; Function Attrs: mustprogress nounwind uwtable
define available_externally { i64, ptr } @_ZNKSt7__cxx1112basic_stringIcSt11char_traitsIcESaIcEEcvSt17basic_string_viewIcS2_EEv(ptr noundef nonnull align 8 dereferenceable(32) %0) #6 align 2 {
  %2 = alloca %"class.std::basic_string_view", align 8
  %3 = alloca ptr, align 8
  store ptr %0, ptr %3, align 8, !tbaa !71
  %4 = load ptr, ptr %3, align 8
  %5 = call noundef ptr @_ZNKSt7__cxx1112basic_stringIcSt11char_traitsIcESaIcEE4dataEv(ptr noundef nonnull align 8 dereferenceable(32) %4) #3
  %6 = call noundef i64 @_ZNKSt7__cxx1112basic_stringIcSt11char_traitsIcESaIcEE4sizeEv(ptr noundef nonnull align 8 dereferenceable(32) %4) #3
  call void @_ZNSt17basic_string_viewIcSt11char_traitsIcEEC2EPKcm(ptr noundef nonnull align 8 dereferenceable(16) %2, ptr noundef %5, i64 noundef %6) #3
  %7 = load { i64, ptr }, ptr %2, align 8
  ret { i64, ptr } %7
}

; Function Attrs: inlinehint mustprogress uwtable
define linkonce_odr noundef ptr @_ZN4absl12lts_2024072212log_internal12Check_EQImplIP12grpc_channelDnEEPNSt7__cxx1112basic_stringIcSt11char_traitsIcESaIcEEERKT_RKT0_PKc(ptr noundef nonnull align 8 dereferenceable(8) %0, ptr noundef nonnull align 8 dereferenceable(8) %1, ptr noundef %2) #9 comdat {
  %4 = alloca ptr, align 8
  %5 = alloca ptr, align 8
  %6 = alloca ptr, align 8
  store ptr %0, ptr %4, align 8, !tbaa !358
  store ptr %1, ptr %5, align 8, !tbaa !87
  store ptr %2, ptr %6, align 8, !tbaa !39
  %7 = load ptr, ptr %4, align 8, !tbaa !358
  %8 = load ptr, ptr %7, align 8, !tbaa !271
  %9 = icmp eq ptr %8, null
  %10 = zext i1 %9 to i64
  %11 = call i64 @llvm.expect.i64(i64 %10, i64 1)
  %12 = icmp ne i64 %11, 0
  br i1 %12, label %13, label %14

13:                                               ; preds = %3
  br label %19

14:                                               ; preds = %3
  %15 = load ptr, ptr %4, align 8, !tbaa !358
  %16 = load ptr, ptr %15, align 8, !tbaa !271
  %17 = load ptr, ptr %6, align 8, !tbaa !39
  %18 = call noundef nonnull ptr @_ZN4absl12lts_2024072212log_internal17MakeCheckOpStringIPKvS4_EEPNSt7__cxx1112basic_stringIcSt11char_traitsIcESaIcEEET_T0_PKc(ptr noundef %16, ptr noundef null, ptr noundef %17)
  br label %19

19:                                               ; preds = %14, %13
  %20 = phi ptr [ null, %13 ], [ %18, %14 ]
  ret ptr %20
}

; Function Attrs: inlinehint mustprogress nounwind uwtable
define linkonce_odr noundef nonnull align 8 dereferenceable(8) ptr @_ZN4absl12lts_2024072212log_internal21GetReferenceableValueIDnEERKT_S5_(ptr noundef nonnull align 8 dereferenceable(8) %0) #11 comdat {
  %2 = alloca ptr, align 8
  store ptr %0, ptr %2, align 8, !tbaa !87
  %3 = load ptr, ptr %2, align 8, !tbaa !87
  ret ptr %3
}

; Function Attrs: inlinehint mustprogress nounwind uwtable
define linkonce_odr noundef nonnull align 8 dereferenceable(8) ptr @_ZN4absl12lts_2024072212log_internal21GetReferenceableValueIP12grpc_channelEERKT_S7_(ptr noundef nonnull align 8 dereferenceable(8) %0) #11 comdat {
  %2 = alloca ptr, align 8
  store ptr %0, ptr %2, align 8, !tbaa !358
  %3 = load ptr, ptr %2, align 8, !tbaa !358
  ret ptr %3
}

; Function Attrs: mustprogress uwtable
define internal void @_ZL34alts_tsi_handshaker_create_channelPvN4absl12lts_202407226StatusE(ptr noundef %0, ptr noundef %1) #4 personality ptr @__gxx_personality_v0 {
  %3 = alloca ptr, align 8
  %4 = alloca ptr, align 8
  %5 = alloca ptr, align 8
  %6 = alloca ptr, align 8
  %7 = alloca ptr, align 8
  %8 = alloca ptr, align 8
  %9 = alloca %"class.absl::lts_20240722::log_internal::Voidify", align 1
  %10 = alloca %"class.absl::lts_20240722::log_internal::LogMessageFatal", align 8
  %11 = alloca %"class.std::basic_string_view", align 8
  %12 = alloca ptr, align 8
  %13 = alloca i32, align 4
  %14 = alloca ptr, align 8
  %15 = alloca %struct.grpc_arg, align 8
  %16 = alloca %struct.grpc_channel_args, align 8
  %17 = alloca i32, align 4
  store ptr %0, ptr %3, align 8, !tbaa !60
  store ptr %1, ptr %4, align 8, !tbaa !337
  call void @llvm.lifetime.start.p0(i64 8, ptr %5) #3
  %18 = load ptr, ptr %3, align 8, !tbaa !60
  store ptr %18, ptr %5, align 8, !tbaa !296
  call void @llvm.lifetime.start.p0(i64 8, ptr %6) #3
  %19 = load ptr, ptr %5, align 8, !tbaa !296
  %20 = getelementptr inbounds nuw %struct.alts_tsi_handshaker_continue_handshaker_next_args, ptr %19, i32 0, i32 0
  %21 = load ptr, ptr %20, align 8, !tbaa !298
  store ptr %21, ptr %6, align 8, !tbaa !67
  br label %22

22:                                               ; preds = %2
  call void @llvm.lifetime.start.p0(i64 8, ptr %7) #3
  %23 = load ptr, ptr %6, align 8, !tbaa !67
  %24 = getelementptr inbounds nuw %struct.alts_tsi_handshaker, ptr %23, i32 0, i32 9
  %25 = call noundef nonnull align 8 dereferenceable(8) ptr @_ZN4absl12lts_2024072212log_internal21GetReferenceableValueIP12grpc_channelEERKT_S7_(ptr noundef nonnull align 8 dereferenceable(8) %24)
  call void @llvm.lifetime.start.p0(i64 8, ptr %8) #3
  store ptr null, ptr %8, align 8, !tbaa !69
  %26 = call noundef nonnull align 8 dereferenceable(8) ptr @_ZN4absl12lts_2024072212log_internal21GetReferenceableValueIDnEERKT_S5_(ptr noundef nonnull align 8 dereferenceable(8) %8)
  %27 = call noundef ptr @_ZN4absl12lts_2024072212log_internal12Check_EQImplIP12grpc_channelDnEEPNSt7__cxx1112basic_stringIcSt11char_traitsIcESaIcEEERKT_RKT0_PKc(ptr noundef nonnull align 8 dereferenceable(8) %25, ptr noundef nonnull align 8 dereferenceable(8) %26, ptr noundef @.str.42)
  call void @llvm.lifetime.end.p0(i64 8, ptr %8) #3
  store ptr %27, ptr %7, align 8, !tbaa !71
  %28 = load ptr, ptr %7, align 8, !tbaa !71
  %29 = icmp ne ptr %28, null
  br i1 %29, label %31, label %30

30:                                               ; preds = %22
  call void @llvm.lifetime.end.p0(i64 8, ptr %7) #3
  br label %49

31:                                               ; preds = %22
  call void @llvm.lifetime.start.p0(i64 1, ptr %9) #3
  call void @llvm.lifetime.start.p0(i64 16, ptr %10) #3
  %32 = load ptr, ptr %7, align 8, !tbaa !71
  %33 = call { i64, ptr } @_ZNKSt7__cxx1112basic_stringIcSt11char_traitsIcESaIcEEcvSt17basic_string_viewIcS2_EEv(ptr noundef nonnull align 8 dereferenceable(32) %32) #3
  %34 = getelementptr inbounds nuw { i64, ptr }, ptr %11, i32 0, i32 0
  %35 = extractvalue { i64, ptr } %33, 0
  store i64 %35, ptr %34, align 8
  %36 = getelementptr inbounds nuw { i64, ptr }, ptr %11, i32 0, i32 1
  %37 = extractvalue { i64, ptr } %33, 1
  store ptr %37, ptr %36, align 8
  %38 = getelementptr inbounds nuw { i64, ptr }, ptr %11, i32 0, i32 0
  %39 = load i64, ptr %38, align 8
  %40 = getelementptr inbounds nuw { i64, ptr }, ptr %11, i32 0, i32 1
  %41 = load ptr, ptr %40, align 8
  call void @_ZN4absl12lts_2024072212log_internal15LogMessageFatalC1EPKciSt17basic_string_viewIcSt11char_traitsIcEE(ptr noundef nonnull align 8 dereferenceable(16) %10, ptr noundef @.str, i32 noundef 498, i64 %39, ptr %41) #26
  %42 = call noundef nonnull align 8 dereferenceable(16) ptr @_ZN4absl12lts_2024072212log_internal10LogMessage14InternalStreamEv(ptr noundef nonnull align 8 dereferenceable(16) %10)
  invoke void @_ZNKO4absl12lts_2024072212log_internal7VoidifyaaINS1_10LogMessageEEEvRKT_(ptr noundef nonnull align 1 dereferenceable(1) %9, ptr noundef nonnull align 8 dereferenceable(16) %42)
          to label %43 unwind label %44

43:                                               ; preds = %31
  call void @_ZN4absl12lts_2024072212log_internal15LogMessageFatalD1Ev(ptr noundef nonnull align 8 dereferenceable(16) %10) #28
  unreachable

44:                                               ; preds = %31
  %45 = landingpad { ptr, i32 }
          cleanup
  %46 = extractvalue { ptr, i32 } %45, 0
  store ptr %46, ptr %12, align 8
  %47 = extractvalue { ptr, i32 } %45, 1
  store i32 %47, ptr %13, align 4
  call void @_ZN4absl12lts_2024072212log_internal15LogMessageFatalD1Ev(ptr noundef nonnull align 8 dereferenceable(16) %10) #28
  unreachable

48:                                               ; No predecessors!
  call void @llvm.lifetime.end.p0(i64 16, ptr %10) #3
  call void @llvm.lifetime.end.p0(i64 1, ptr %9) #3
  call void @llvm.lifetime.end.p0(i64 8, ptr %7) #3
  call void @llvm.lifetime.end.p0(i64 8, ptr %6) #3
  call void @llvm.lifetime.end.p0(i64 8, ptr %5) #3
  br label %98

49:                                               ; preds = %30
  call void @llvm.lifetime.start.p0(i64 8, ptr %14) #3
  %50 = call ptr @grpc_insecure_credentials_create()
  store ptr %50, ptr %14, align 8, !tbaa !339
  call void @llvm.lifetime.start.p0(i64 32, ptr %15) #3
  call void @_Z31grpc_channel_arg_integer_createPci(ptr dead_on_unwind writable sret(%struct.grpc_arg) align 8 %15, ptr noundef @.str.43, i32 noundef 0)
  call void @llvm.lifetime.start.p0(i64 16, ptr %16) #3
  %51 = getelementptr inbounds nuw %struct.grpc_channel_args, ptr %16, i32 0, i32 0
  store i64 1, ptr %51, align 8, !tbaa !341
  %52 = getelementptr inbounds nuw %struct.grpc_channel_args, ptr %16, i32 0, i32 1
  store ptr %15, ptr %52, align 8, !tbaa !343
  %53 = load ptr, ptr %5, align 8, !tbaa !296
  %54 = getelementptr inbounds nuw %struct.alts_tsi_handshaker_continue_handshaker_next_args, ptr %53, i32 0, i32 0
  %55 = load ptr, ptr %54, align 8, !tbaa !298
  %56 = getelementptr inbounds nuw %struct.alts_tsi_handshaker, ptr %55, i32 0, i32 5
  %57 = load ptr, ptr %56, align 8, !tbaa !101
  %58 = load ptr, ptr %14, align 8, !tbaa !339
  %59 = call ptr @grpc_channel_create(ptr noundef %57, ptr noundef %58, ptr noundef %16)
  %60 = load ptr, ptr %6, align 8, !tbaa !67
  %61 = getelementptr inbounds nuw %struct.alts_tsi_handshaker, ptr %60, i32 0, i32 9
  store ptr %59, ptr %61, align 8, !tbaa !111
  %62 = load ptr, ptr %14, align 8, !tbaa !339
  call void @grpc_channel_credentials_release(ptr noundef %62)
  call void @llvm.lifetime.start.p0(i64 4, ptr %17) #3
  %63 = load ptr, ptr %6, align 8, !tbaa !67
  %64 = load ptr, ptr %5, align 8, !tbaa !296
  %65 = getelementptr inbounds nuw %struct.alts_tsi_handshaker_continue_handshaker_next_args, ptr %64, i32 0, i32 1
  %66 = load ptr, ptr %65, align 8, !tbaa !301
  %67 = load ptr, ptr %5, align 8, !tbaa !296
  %68 = getelementptr inbounds nuw %struct.alts_tsi_handshaker_continue_handshaker_next_args, ptr %67, i32 0, i32 2
  %69 = load i64, ptr %68, align 8, !tbaa !302
  %70 = load ptr, ptr %5, align 8, !tbaa !296
  %71 = getelementptr inbounds nuw %struct.alts_tsi_handshaker_continue_handshaker_next_args, ptr %70, i32 0, i32 3
  %72 = load ptr, ptr %71, align 8, !tbaa !304
  %73 = load ptr, ptr %5, align 8, !tbaa !296
  %74 = getelementptr inbounds nuw %struct.alts_tsi_handshaker_continue_handshaker_next_args, ptr %73, i32 0, i32 4
  %75 = load ptr, ptr %74, align 8, !tbaa !305
  %76 = load ptr, ptr %5, align 8, !tbaa !296
  %77 = getelementptr inbounds nuw %struct.alts_tsi_handshaker_continue_handshaker_next_args, ptr %76, i32 0, i32 6
  %78 = load ptr, ptr %77, align 8, !tbaa !303
  %79 = call noundef i32 @_ZL44alts_tsi_handshaker_continue_handshaker_nextP19alts_tsi_handshakerPKhmPFv10tsi_resultPvS2_mP21tsi_handshaker_resultES4_PNSt7__cxx1112basic_stringIcSt11char_traitsIcESaIcEEE(ptr noundef %63, ptr noundef %66, i64 noundef %69, ptr noundef %72, ptr noundef %75, ptr noundef %78)
  store i32 %79, ptr %17, align 4, !tbaa !191
  %80 = load i32, ptr %17, align 4, !tbaa !191
  %81 = icmp ne i32 %80, 0
  br i1 %81, label %82, label %90

82:                                               ; preds = %49
  %83 = load ptr, ptr %5, align 8, !tbaa !296
  %84 = getelementptr inbounds nuw %struct.alts_tsi_handshaker_continue_handshaker_next_args, ptr %83, i32 0, i32 3
  %85 = load ptr, ptr %84, align 8, !tbaa !304
  %86 = load i32, ptr %17, align 4, !tbaa !191
  %87 = load ptr, ptr %5, align 8, !tbaa !296
  %88 = getelementptr inbounds nuw %struct.alts_tsi_handshaker_continue_handshaker_next_args, ptr %87, i32 0, i32 4
  %89 = load ptr, ptr %88, align 8, !tbaa !305
  call void %85(i32 noundef %86, ptr noundef %89, ptr noundef null, i64 noundef 0, ptr noundef null)
  br label %90

90:                                               ; preds = %82, %49
  %91 = load ptr, ptr %5, align 8, !tbaa !296
  %92 = getelementptr inbounds nuw %struct.alts_tsi_handshaker_continue_handshaker_next_args, ptr %91, i32 0, i32 1
  %93 = load ptr, ptr %92, align 8, !tbaa !301
  call void @gpr_free(ptr noundef %93)
  %94 = load ptr, ptr %5, align 8, !tbaa !296
  %95 = icmp eq ptr %94, null
  br i1 %95, label %97, label %96

96:                                               ; preds = %90
  call void @_ZdlPvm(ptr noundef %94, i64 noundef 80) #30
  br label %97

97:                                               ; preds = %96, %90
  call void @llvm.lifetime.end.p0(i64 4, ptr %17) #3
  call void @llvm.lifetime.end.p0(i64 16, ptr %16) #3
  call void @llvm.lifetime.end.p0(i64 32, ptr %15) #3
  call void @llvm.lifetime.end.p0(i64 8, ptr %14) #3
  call void @llvm.lifetime.end.p0(i64 8, ptr %6) #3
  call void @llvm.lifetime.end.p0(i64 8, ptr %5) #3
  ret void

98:                                               ; preds = %48
  %99 = load ptr, ptr %12, align 8
  %100 = load i32, ptr %13, align 4
  %101 = insertvalue { ptr, i32 } poison, ptr %99, 0
  %102 = insertvalue { ptr, i32 } %101, i32 %100, 1
  resume { ptr, i32 } %102
}