; Function Attrs: mustprogress uwtable
define internal void @_ZL34alts_tsi_handshaker_create_channelPvN4absl12lts_202407226StatusE(ptr noundef %0, ptr readnone captures(none) %1) #3 personality ptr @__gxx_personality_v0 {
  %3 = alloca %"class.absl::lts_20240722::log_internal::LogMessageFatal", align 8
  %4 = alloca %struct.grpc_arg, align 8
  %5 = alloca %struct.grpc_channel_args, align 8
  %6 = load ptr, ptr %0, align 8, !tbaa !129
  %7 = getelementptr inbounds nuw i8, ptr %6, i64 88
  %8 = load ptr, ptr %7, align 8, !tbaa !146
  %9 = icmp eq ptr %8, null
  br i1 %9, label %10, label %28, !prof !100

10:                                               ; preds = %2
  %11 = tail call ptr @grpc_insecure_credentials_create()
  call void @llvm.lifetime.start.p0(i64 32, ptr nonnull %4) #29
  call void @_Z31grpc_channel_arg_integer_createPci(ptr dead_on_unwind nonnull writable sret(%struct.grpc_arg) align 8 %4, ptr noundef nonnull @.str.43, i32 noundef 0)
  call void @llvm.lifetime.start.p0(i64 16, ptr nonnull %5) #29
  store i64 1, ptr %5, align 8, !tbaa !147
  %12 = getelementptr inbounds nuw i8, ptr %5, i64 8
  store ptr %4, ptr %12, align 8, !tbaa !149
  %13 = load ptr, ptr %0, align 8, !tbaa !129
  %14 = getelementptr inbounds nuw i8, ptr %13, i64 56
  %15 = load ptr, ptr %14, align 8, !tbaa !70
  %16 = call ptr @grpc_channel_create(ptr noundef %15, ptr noundef %11, ptr noundef nonnull %5)
  store ptr %16, ptr %7, align 8, !tbaa !108
  call void @grpc_channel_credentials_release(ptr noundef %11)
  %17 = getelementptr inbounds nuw i8, ptr %0, i64 8
  %18 = load ptr, ptr %17, align 8, !tbaa !134
  %19 = getelementptr inbounds nuw i8, ptr %0, i64 16
  %20 = load i64, ptr %19, align 8, !tbaa !135
  %21 = getelementptr inbounds nuw i8, ptr %0, i64 24
  %22 = load ptr, ptr %21, align 8, !tbaa !137
  %23 = getelementptr inbounds nuw i8, ptr %0, i64 32
  %24 = load ptr, ptr %23, align 8, !tbaa !138
  %25 = getelementptr inbounds nuw i8, ptr %0, i64 72
  %26 = load ptr, ptr %25, align 8, !tbaa !136
  %27 = call fastcc noundef i32 @_ZL44alts_tsi_handshaker_continue_handshaker_nextP19alts_tsi_handshakerPKhmPFv10tsi_resultPvS2_mP21tsi_handshaker_resultES4_PNSt7__cxx1112basic_stringIcSt11char_traitsIcESaIcEEE(ptr noundef nonnull %6, ptr noundef %18, i64 noundef %20, ptr noundef %22, ptr noundef %24, ptr noundef %26)
  %.not21 = icmp eq i32 %27, 0
  br i1 %.not21, label %36, label %33

28:                                               ; preds = %2
  %29 = tail call noundef nonnull ptr @_ZN4absl12lts_2024072212log_internal17MakeCheckOpStringIPKvS4_EEPNSt7__cxx1112basic_stringIcSt11char_traitsIcESaIcEEET_T0_PKc(ptr noundef nonnull %8, ptr noundef null, ptr noundef nonnull @.str.42)
  call void @llvm.lifetime.start.p0(i64 16, ptr nonnull %3) #29
  %30 = load ptr, ptr %29, align 8, !tbaa !64
  %31 = getelementptr inbounds nuw i8, ptr %29, i64 8
  %32 = load i64, ptr %31, align 8, !tbaa !67
  call void @_ZN4absl12lts_2024072212log_internal15LogMessageFatalC1EPKciSt17basic_string_viewIcSt11char_traitsIcEE(ptr noundef nonnull align 8 dereferenceable(16) %3, ptr noundef nonnull @.str, i32 noundef 498, i64 %32, ptr %30) #30
  call void @_ZN4absl12lts_2024072212log_internal15LogMessageFatalD1Ev(ptr noundef nonnull align 8 dereferenceable(16) %3) #32
  unreachable

33:                                               ; preds = %10
  %34 = load ptr, ptr %21, align 8, !tbaa !137
  %35 = load ptr, ptr %23, align 8, !tbaa !138
  call void %34(i32 noundef %27, ptr noundef %35, ptr noundef null, i64 noundef 0, ptr noundef null)
  br label %36

36:                                               ; preds = %33, %10
  %37 = load ptr, ptr %17, align 8, !tbaa !134
  call void @gpr_free(ptr noundef %37)
  call void @_ZdlPvm(ptr noundef nonnull %0, i64 noundef 80) #35
  call void @llvm.lifetime.end.p0(i64 16, ptr nonnull %5) #29
  call void @llvm.lifetime.end.p0(i64 32, ptr nonnull %4) #29
  ret void
}